target datalayout = "e-m:e-p270:32:32-p271:32:32-p272:64:64-i64:64-i128:128-f80:128-n8:16:32:64-S128"
target triple = "x86_64-pc-linux-gnu"

%struct.Super_ManStruct_t_ = type { ptr, i32, i32, i32, i32, float, float, i32, i32, i32, [10 x ptr], i32, ptr, ptr, ptr, ptr, i32, i32, i32, i32, i32, i32, i32, i64, i32, i32, i64, i64 }
%struct.Vec_Str_t_ = type { i32, i32, ptr }

@.str = private unnamed_addr constant [3 x i8] c"wb\00", align 1
@.str.1 = private unnamed_addr constant [31 x i8] c"Cannot open output file \22%s\22.\0A\00", align 1
@.str.2 = private unnamed_addr constant [50 x i8] c"The supergates are written using new format \22%s\22 \00", align 1
@.str.3 = private unnamed_addr constant [13 x i8] c"(%0.3f MB).\0A\00", align 1
@.str.47 = private unnamed_addr constant [7 x i8] c".super\00", align 1

; Function Attrs: inlinehint nounwind uwtable
define internal void @Vec_StrFree(ptr noundef %0) #3 {
  %2 = alloca ptr, align 8
  store ptr %0, ptr %2, align 8, !tbaa !16
  %3 = load ptr, ptr %2, align 8, !tbaa !16
  %4 = getelementptr inbounds nuw %struct.Vec_Str_t_, ptr %3, i32 0, i32 2
  %5 = load ptr, ptr %4, align 8, !tbaa !47
  %6 = icmp ne ptr %5, null
  br i1 %6, label %7, label %13

7:                                                ; preds = %1
  %8 = load ptr, ptr %2, align 8, !tbaa !16
  %9 = getelementptr inbounds nuw %struct.Vec_Str_t_, ptr %8, i32 0, i32 2
  %10 = load ptr, ptr %9, align 8, !tbaa !47
  call void @free(ptr noundef %10) #12
  %11 = load ptr, ptr %2, align 8, !tbaa !16
  %12 = getelementptr inbounds nuw %struct.Vec_Str_t_, ptr %11, i32 0, i32 2
  store ptr null, ptr %12, align 8, !tbaa !47
  br label %14

13:                                               ; preds = %1
  br label %14

14:                                               ; preds = %13, %7
  %15 = load ptr, ptr %2, align 8, !tbaa !16
  %16 = icmp ne ptr %15, null
  br i1 %16, label %17, label %19

17:                                               ; preds = %14
  %18 = load ptr, ptr %2, align 8, !tbaa !16
  call void @free(ptr noundef %18) #12
  store ptr null, ptr %2, align 8, !tbaa !16
  br label %20

19:                                               ; preds = %14
  br label %20

20:                                               ; preds = %19, %17
  ret void
}

; Function Attrs: inlinehint nounwind uwtable
define internal i32 @Vec_StrSize(ptr noundef %0) #3 {
  %2 = alloca ptr, align 8
  store ptr %0, ptr %2, align 8, !tbaa !16
  %3 = load ptr, ptr %2, align 8, !tbaa !16
  %4 = getelementptr inbounds nuw %struct.Vec_Str_t_, ptr %3, i32 0, i32 1
  %5 = load i32, ptr %4, align 4, !tbaa !49
  ret i32 %5
}

; Function Attrs: inlinehint nounwind uwtable
define internal ptr @Vec_StrArray(ptr noundef %0) #3 {
  %2 = alloca ptr, align 8
  store ptr %0, ptr %2, align 8, !tbaa !16
  %3 = load ptr, ptr %2, align 8, !tbaa !16
  %4 = getelementptr inbounds nuw %struct.Vec_Str_t_, ptr %3, i32 0, i32 2
  %5 = load ptr, ptr %4, align 8, !tbaa !47
  ret ptr %5
}

; Function Attrs: nounwind uwtable
define void @Super_WriteLibraryTree(ptr noundef %0) #0 {
  %2 = alloca ptr, align 8
  %3 = alloca ptr, align 8
  %4 = alloca ptr, align 8
  %5 = alloca ptr, align 8
  %6 = alloca i32, align 4
  store ptr %0, ptr %2, align 8, !tbaa !20
  call void @llvm.lifetime.start.p0(i64 8, ptr %3) #12
  call void @llvm.lifetime.start.p0(i64 8, ptr %4) #12
  %7 = load ptr, ptr %2, align 8, !tbaa !20
  %8 = getelementptr inbounds nuw %struct.Super_ManStruct_t_, ptr %7, i32 0, i32 0
  %9 = load ptr, ptr %8, align 8, !tbaa !22
  %10 = call ptr @Extra_FileNameGenericAppend(ptr noundef %9, ptr noundef @.str.47)
  store ptr %10, ptr %4, align 8, !tbaa !12
  call void @llvm.lifetime.start.p0(i64 8, ptr %5) #12
  %11 = load ptr, ptr %4, align 8, !tbaa !12
  %12 = call noalias ptr @fopen(ptr noundef %11, ptr noundef @.str)
  store ptr %12, ptr %5, align 8, !tbaa !14
  %13 = load ptr, ptr %5, align 8, !tbaa !14
  %14 = icmp eq ptr %13, null
  br i1 %14, label %15, label %18

15:                                               ; preds = %1
  %16 = load ptr, ptr %4, align 8, !tbaa !12
  %17 = call i32 (ptr, ...) @printf(ptr noundef @.str.1, ptr noundef %16)
  store i32 1, ptr %6, align 4
  br label %44

18:                                               ; preds = %1
  %19 = load ptr, ptr %2, align 8, !tbaa !20
  %20 = call ptr @Super_WriteLibraryTreeStr(ptr noundef %19)
  store ptr %20, ptr %3, align 8, !tbaa !16
  %21 = load ptr, ptr %3, align 8, !tbaa !16
  %22 = call ptr @Vec_StrArray(ptr noundef %21)
  %23 = load ptr, ptr %3, align 8, !tbaa !16
  %24 = call i32 @Vec_StrSize(ptr noundef %23)
  %25 = sext i32 %24 to i64
  %26 = load ptr, ptr %5, align 8, !tbaa !14
  %27 = call i64 @fwrite(ptr noundef %22, i64 noundef 1, i64 noundef %25, ptr noundef %26)
  %28 = load ptr, ptr %5, align 8, !tbaa !14
  %29 = call i32 @fclose(ptr noundef %28)
  %30 = load ptr, ptr %3, align 8, !tbaa !16
  call void @Vec_StrFree(ptr noundef %30)
  %31 = load ptr, ptr %2, align 8, !tbaa !20
  %32 = getelementptr inbounds nuw %struct.Super_ManStruct_t_, ptr %31, i32 0, i32 9
  %33 = load i32, ptr %32, align 8, !tbaa !35
  %34 = icmp ne i32 %33, 0
  br i1 %34, label %35, label %43

35:                                               ; preds = %18
  %36 = load ptr, ptr %4, align 8, !tbaa !12
  %37 = call i32 (ptr, ...) @printf(ptr noundef @.str.2, ptr noundef %36)
  %38 = load ptr, ptr %4, align 8, !tbaa !12
  %39 = call i32 @Extra_FileSize(ptr noundef %38)
  %40 = sitofp i32 %39 to double
  %41 = fdiv double %40, 0x4130000000000000
  %42 = call i32 (ptr, ...) @printf(ptr noundef @.str.3, double noundef %41)
  br label %43

43:                                               ; preds = %35, %18
  store i32 0, ptr %6, align 4
  br label %44

44:                                               ; preds = %43, %15
  call void @llvm.lifetime.end.p0(i64 8, ptr %5) #12
  call void @llvm.lifetime.end.p0(i64 8, ptr %4) #12
  call void @llvm.lifetime.end.p0(i64 8, ptr %3) #12
  %45 = load i32, ptr %6, align 4
  switch i32 %45, label %47 [
    i32 0, label %46
    i32 1, label %46
  ]

46:                                               ; preds = %44, %44
  ret void

47:                                               ; preds = %44
  unreachable
}