; Function Attrs: nounwind uwtable
define void @Super_WriteLibraryTree(ptr noundef readonly captures(none) %0) local_unnamed_addr #0 {
  %2 = load ptr, ptr %0, align 8, !tbaa !22
  %3 = tail call ptr @Extra_FileNameGenericAppend(ptr noundef %2, ptr noundef nonnull @.str.47) #20
  %4 = tail call noalias ptr @fopen(ptr noundef %3, ptr noundef nonnull @.str)
  %5 = icmp eq ptr %4, null
  br i1 %5, label %6, label %8

6:                                                ; preds = %1
  %7 = tail call i32 (ptr, ...) @printf(ptr noundef nonnull dereferenceable(1) @.str.1, ptr noundef %3)
  br label %25

8:                                                ; preds = %1
  %9 = tail call fastcc ptr @Super_WriteLibraryTreeStr(ptr noundef nonnull %0)
  %10 = getelementptr i8, ptr %9, i64 8
  %.val13 = load ptr, ptr %10, align 8, !tbaa !3
  %11 = getelementptr i8, ptr %9, i64 4
  %.val = load i32, ptr %11, align 4, !tbaa !10
  %12 = sext i32 %.val to i64
  %13 = tail call i64 @fwrite(ptr noundef %.val13, i64 noundef 1, i64 noundef %12, ptr noundef nonnull %4)
  %14 = tail call i32 @fclose(ptr noundef nonnull %4)
  %15 = load ptr, ptr %10, align 8, !tbaa !3
  %.not.i = icmp eq ptr %15, null
  br i1 %.not.i, label %Vec_StrFree.exit, label %16

16:                                               ; preds = %8
  tail call void @free(ptr noundef nonnull %15) #20
  br label %Vec_StrFree.exit

Vec_StrFree.exit:                                 ; preds = %8, %16
  tail call void @free(ptr noundef nonnull %9) #20
  %17 = getelementptr inbounds nuw i8, ptr %0, i64 40
  %18 = load i32, ptr %17, align 8, !tbaa !32
  %.not = icmp eq i32 %18, 0
  br i1 %.not, label %25, label %19

19:                                               ; preds = %Vec_StrFree.exit
  %20 = tail call i32 (ptr, ...) @printf(ptr noundef nonnull dereferenceable(1) @.str.2, ptr noundef %3)
  %21 = tail call i32 @Extra_FileSize(ptr noundef %3) #20
  %22 = sitofp i32 %21 to double
  %23 = fmul double %22, 0x3EB0000000000000
  %24 = tail call i32 (ptr, ...) @printf(ptr noundef nonnull dereferenceable(1) @.str.3, double noundef %23)
  br label %25

25:                                               ; preds = %Vec_StrFree.exit, %19, %6
  ret void
}